target datalayout = "e-m:e-p270:32:32-p271:32:32-p272:64:64-i64:64-i128:128-f80:128-n8:16:32:64-S128"
target triple = "x86_64-unknown-linux-gnu"

%struct.btBroadphasePair = type { ptr, ptr, ptr, %union.anon.4 }
%union.anon.4 = type { ptr }

; Function Attrs: mustprogress uwtable
define dso_local void @_ZN28btHashedOverlappingPairCache20cleanOverlappingPairER16btBroadphasePairP12btDispatcher(ptr noundef nonnull align 8 dereferenceable(120) %this, ptr noundef nonnull align 8 dereferenceable(32) %pair, ptr noundef %dispatcher) unnamed_addr #2 align 2 {
entry:
  %this.addr = alloca ptr, align 8
  %pair.addr = alloca ptr, align 8
  %dispatcher.addr = alloca ptr, align 8
  store ptr %this, ptr %this.addr, align 8
  store ptr %pair, ptr %pair.addr, align 8
  store ptr %dispatcher, ptr %dispatcher.addr, align 8
  %0 = load ptr, ptr %pair.addr, align 8
  %m_algorithm = getelementptr inbounds %struct.btBroadphasePair, ptr %0, i32 0, i32 2
  %1 = load ptr, ptr %m_algorithm, align 8
  %tobool = icmp ne ptr %1, null
  br i1 %tobool, label %land.lhs.true, label %if.end

land.lhs.true:                                    ; preds = %entry
  %2 = load ptr, ptr %dispatcher.addr, align 8
  %tobool2 = icmp ne ptr %2, null
  br i1 %tobool2, label %if.then, label %if.end

if.then:                                          ; preds = %land.lhs.true
  %3 = load ptr, ptr %pair.addr, align 8
  %m_algorithm3 = getelementptr inbounds %struct.btBroadphasePair, ptr %3, i32 0, i32 2
  %4 = load ptr, ptr %m_algorithm3, align 8
  %vtable = load ptr, ptr %4, align 8
  %vfn = getelementptr inbounds ptr, ptr %vtable, i64 0
  %5 = load ptr, ptr %vfn, align 8
  call void %5(ptr noundef nonnull align 8 dereferenceable(16) %4) #10
  %6 = load ptr, ptr %dispatcher.addr, align 8
  %7 = load ptr, ptr %pair.addr, align 8
  %m_algorithm4 = getelementptr inbounds %struct.btBroadphasePair, ptr %7, i32 0, i32 2
  %8 = load ptr, ptr %m_algorithm4, align 8
  %vtable5 = load ptr, ptr %6, align 8
  %vfn6 = getelementptr inbounds ptr, ptr %vtable5, i64 15
  %9 = load ptr, ptr %vfn6, align 8
  call void %9(ptr noundef nonnull align 8 dereferenceable(8) %6, ptr noundef %8)
  %10 = load ptr, ptr %pair.addr, align 8
  %m_algorithm7 = getelementptr inbounds %struct.btBroadphasePair, ptr %10, i32 0, i32 2
  store ptr null, ptr %m_algorithm7, align 8
  br label %if.end

if.end:                                           ; preds = %if.then, %land.lhs.true, %entry
  ret void
}