; Function Attrs: mustprogress uwtable
define dso_local void @_ZN28btHashedOverlappingPairCache20cleanOverlappingPairER16btBroadphasePairP12btDispatcher(ptr nocapture nonnull readnone align 8 %this, ptr nocapture noundef nonnull align 8 dereferenceable(32) %pair, ptr noundef %dispatcher) unnamed_addr #0 align 2 {
entry:
  %m_algorithm = getelementptr inbounds i8, ptr %pair, i64 16
  %0 = load ptr, ptr %m_algorithm, align 8
  %tobool = icmp ne ptr %0, null
  %tobool2 = icmp ne ptr %dispatcher, null
  %or.cond = and i1 %tobool2, %tobool
  br i1 %or.cond, label %if.then, label %if.end

if.then:                                          ; preds = %entry
  %vtable = load ptr, ptr %0, align 8
  %1 = load ptr, ptr %vtable, align 8
  tail call void %1(ptr noundef nonnull align 8 dereferenceable(16) %0) #12
  %2 = load ptr, ptr %m_algorithm, align 8
  %vtable5 = load ptr, ptr %dispatcher, align 8
  %vfn6 = getelementptr inbounds i8, ptr %vtable5, i64 120
  %3 = load ptr, ptr %vfn6, align 8
  tail call void %3(ptr noundef nonnull align 8 dereferenceable(8) %dispatcher, ptr noundef %2)
  store ptr null, ptr %m_algorithm, align 8
  br label %if.end

if.end:                                           ; preds = %if.then, %entry
  ret void
}